target datalayout = "e-m:e-p270:32:32-p271:32:32-p272:64:64-i64:64-i128:128-f80:128-n8:16:32:64-S128"
target triple = "x86_64-pc-linux-gnu"

%struct.PaUnixThread = type { i64, i32, i32, i32, %struct.PaUnixMutex, %union.pthread_cond_t, i32, i32 }
%struct.PaUnixMutex = type { %union.pthread_mutex_t }
%union.pthread_mutex_t = type { %struct.__pthread_mutex_s }
%struct.__pthread_mutex_s = type { i32, i32, i32, i32, i32, i16, i16, %struct.__pthread_internal_list }
%struct.__pthread_internal_list = type { ptr, ptr }
%union.pthread_cond_t = type { %struct.__pthread_cond_s }
%struct.__pthread_cond_s = type { %union.__atomic_wide_counter, %union.__atomic_wide_counter, [2 x i32], [2 x i32], i32, i32, [2 x i32] }
%union.__atomic_wide_counter = type { i64 }

@paUtilErr_ = internal global i32 0, align 4
@paUnixMainThread = global i64 0, align 8
@.str.8 = private unnamed_addr constant [197 x i8] c"Expression 'pthread_join( self->thread, &pret )' failed in 'generated/home/dtcxzyw/WorkSpace/Projects/compilers/llvm-opt-benchmark/bench/portaudio/portaudio/src/os/unix/pa_unix_util.c', line: 457\0A\00", align 1

; Function Attrs: nounwind uwtable
define i32 @PaUnixMutex_Terminate(ptr noundef %0) #0 {
  %2 = alloca ptr, align 8
  %3 = alloca i32, align 4
  store ptr %0, ptr %2, align 8, !tbaa !7
  call void @llvm.lifetime.start.p0(i64 4, ptr %3) #10
  store i32 0, ptr %3, align 4, !tbaa !14
  %4 = load ptr, ptr %2, align 8, !tbaa !7
  %5 = getelementptr inbounds nuw %struct.PaUnixMutex, ptr %4, i32 0, i32 0
  %6 = call i32 @pthread_mutex_destroy(ptr noundef %5) #10
  store i32 %6, ptr @paUtilErr_, align 4, !tbaa !14
  %7 = load i32, ptr %3, align 4, !tbaa !14
  call void @llvm.lifetime.end.p0(i64 4, ptr %3) #10
  ret i32 %7
}

; Function Attrs: inlinehint nounwind willreturn memory(none) uwtable
define available_externally i32 @pthread_equal(i64 noundef %0, i64 noundef %1) #9 {
  %3 = alloca i64, align 8
  %4 = alloca i64, align 8
  store i64 %0, ptr %3, align 8, !tbaa !3
  store i64 %1, ptr %4, align 8, !tbaa !3
  %5 = load i64, ptr %3, align 8, !tbaa !3
  %6 = load i64, ptr %4, align 8, !tbaa !3
  %7 = icmp eq i64 %5, %6
  %8 = zext i1 %7 to i32
  ret i32 %8
}

; Function Attrs: nounwind uwtable
define i32 @PaUnixThread_Terminate(ptr noundef %0, i32 noundef %1, ptr noundef %2) #0 {
  %4 = alloca ptr, align 8
  %5 = alloca i32, align 4
  %6 = alloca ptr, align 8
  %7 = alloca i32, align 4
  %8 = alloca ptr, align 8
  store ptr %0, ptr %4, align 8, !tbaa !7
  store i32 %1, ptr %5, align 4, !tbaa !14
  store ptr %2, ptr %6, align 8, !tbaa !16
  call void @llvm.lifetime.start.p0(i64 4, ptr %7) #10
  store i32 0, ptr %7, align 4, !tbaa !14
  call void @llvm.lifetime.start.p0(i64 8, ptr %8) #10
  %9 = load ptr, ptr %6, align 8, !tbaa !16
  %10 = icmp ne ptr %9, null
  br i1 %10, label %11, label %13

11:                                               ; preds = %3
  %12 = load ptr, ptr %6, align 8, !tbaa !16
  store i32 0, ptr %12, align 4, !tbaa !14
  br label %13

13:                                               ; preds = %11, %3
  %14 = load i32, ptr %5, align 4, !tbaa !14
  %15 = load ptr, ptr %4, align 8, !tbaa !7
  %16 = getelementptr inbounds nuw %struct.PaUnixThread, ptr %15, i32 0, i32 2
  store i32 %14, ptr %16, align 4, !tbaa !33
  %17 = load i32, ptr %5, align 4, !tbaa !14
  %18 = icmp ne i32 %17, 0
  br i1 %18, label %24, label %19

19:                                               ; preds = %13
  %20 = load ptr, ptr %4, align 8, !tbaa !7
  %21 = getelementptr inbounds nuw %struct.PaUnixThread, ptr %20, i32 0, i32 0
  %22 = load i64, ptr %21, align 8, !tbaa !26
  %23 = call i32 @pthread_cancel(i64 noundef %22)
  br label %24

24:                                               ; preds = %19, %13
  br label %25

25:                                               ; preds = %24
  %26 = load ptr, ptr %4, align 8, !tbaa !7
  %27 = getelementptr inbounds nuw %struct.PaUnixThread, ptr %26, i32 0, i32 0
  %28 = load i64, ptr %27, align 8, !tbaa !26
  %29 = call i32 @pthread_join(i64 noundef %28, ptr noundef %8)
  store i32 %29, ptr @paUtilErr_, align 4, !tbaa !14
  %30 = icmp ne i32 %29, 0
  %31 = zext i1 %30 to i32
  %32 = sext i32 %31 to i64
  %33 = call i64 @llvm.expect.i64(i64 %32, i64 0)
  %34 = icmp ne i64 %33, 0
  br i1 %34, label %35, label %46

35:                                               ; preds = %25
  %36 = call i64 @pthread_self() #12
  %37 = load i64, ptr @paUnixMainThread, align 8, !tbaa !3
  %38 = call i32 @pthread_equal(i64 noundef %36, i64 noundef %37) #12
  %39 = icmp ne i32 %38, 0
  br i1 %39, label %40, label %45

40:                                               ; preds = %35
  %41 = load i32, ptr @paUtilErr_, align 4, !tbaa !14
  %42 = sext i32 %41 to i64
  %43 = load i32, ptr @paUtilErr_, align 4, !tbaa !14
  %44 = call ptr @strerror(i32 noundef %43) #10
  call void @PaUtil_SetLastHostErrorInfo(i32 noundef 8, i64 noundef %42, ptr noundef %44)
  br label %45

45:                                               ; preds = %40, %35
  call void (ptr, ...) @PaUtil_DebugPrint(ptr noundef @.str.8)
  store i32 -9999, ptr %7, align 4, !tbaa !14
  br label %64

46:                                               ; preds = %25
  br label %47

47:                                               ; preds = %46
  br label %48

48:                                               ; preds = %47
  %49 = load ptr, ptr %8, align 8, !tbaa !7
  %50 = icmp ne ptr %49, null
  br i1 %50, label %51, label %63

51:                                               ; preds = %48
  %52 = load ptr, ptr %8, align 8, !tbaa !7
  %53 = icmp ne ptr inttoptr (i64 -1 to ptr), %52
  br i1 %53, label %54, label %63

54:                                               ; preds = %51
  %55 = load ptr, ptr %6, align 8, !tbaa !16
  %56 = icmp ne ptr %55, null
  br i1 %56, label %57, label %61

57:                                               ; preds = %54
  %58 = load ptr, ptr %8, align 8, !tbaa !7
  %59 = load i32, ptr %58, align 4, !tbaa !14
  %60 = load ptr, ptr %6, align 8, !tbaa !16
  store i32 %59, ptr %60, align 4, !tbaa !14
  br label %61

61:                                               ; preds = %57, %54
  %62 = load ptr, ptr %8, align 8, !tbaa !7
  call void @free(ptr noundef %62) #10
  br label %63

63:                                               ; preds = %61, %51, %48
  br label %64

64:                                               ; preds = %63, %45
  %65 = load ptr, ptr %4, align 8, !tbaa !7
  %66 = getelementptr inbounds nuw %struct.PaUnixThread, ptr %65, i32 0, i32 4
  %67 = call i32 @PaUnixMutex_Terminate(ptr noundef %66)
  store i32 %67, ptr @paUtilErr_, align 4, !tbaa !14
  %68 = load ptr, ptr %4, align 8, !tbaa !7
  %69 = getelementptr inbounds nuw %struct.PaUnixThread, ptr %68, i32 0, i32 5
  %70 = call i32 @pthread_cond_destroy(ptr noundef %69) #10
  store i32 %70, ptr @paUtilErr_, align 4, !tbaa !14
  %71 = load i32, ptr %7, align 4, !tbaa !14
  call void @llvm.lifetime.end.p0(i64 8, ptr %8) #10
  call void @llvm.lifetime.end.p0(i64 4, ptr %7) #10
  ret i32 %71
}