; Function Attrs: nounwind uwtable
define range(i32 -9999, 1) i32 @PaUnixThread_Terminate(ptr noundef initializes((12, 16)) %0, i32 noundef %1, ptr noundef writeonly captures(address_is_null) %2) local_unnamed_addr #6 {
  %4 = alloca ptr, align 8
  call void @llvm.lifetime.start.p0(i64 8, ptr nonnull %4) #16
  %.not = icmp eq ptr %2, null
  br i1 %.not, label %6, label %5

5:                                                ; preds = %3
  store i32 0, ptr %2, align 4, !tbaa !11
  br label %6

6:                                                ; preds = %5, %3
  %7 = getelementptr inbounds nuw i8, ptr %0, i64 12
  store i32 %1, ptr %7, align 4, !tbaa !30
  %.not15 = icmp eq i32 %1, 0
  br i1 %.not15, label %8, label %11

8:                                                ; preds = %6
  %9 = load i64, ptr %0, align 8, !tbaa !23
  %10 = tail call i32 @pthread_cancel(i64 noundef %9) #16
  br label %11

11:                                               ; preds = %6, %8
  %12 = load i64, ptr %0, align 8, !tbaa !23
  %13 = call i32 @pthread_join(i64 noundef %12, ptr noundef nonnull %4) #16
  store i32 %13, ptr @paUtilErr_, align 4, !tbaa !11
  %.not16 = icmp eq i32 %13, 0
  br i1 %.not16, label %21, label %14, !prof !22

14:                                               ; preds = %11
  %15 = tail call i64 @pthread_self() #17
  %16 = load i64, ptr @paUnixMainThread, align 8, !tbaa !17
  %.not18 = icmp eq i64 %15, %16
  br i1 %.not18, label %17, label %20

17:                                               ; preds = %14
  %18 = sext i32 %13 to i64
  %19 = call ptr @strerror(i32 noundef %13) #16
  call void @PaUtil_SetLastHostErrorInfo(i32 noundef 8, i64 noundef %18, ptr noundef %19) #16
  br label %20

20:                                               ; preds = %17, %14
  call void (ptr, ...) @PaUtil_DebugPrint(ptr noundef nonnull @.str.8) #16
  br label %27

21:                                               ; preds = %11
  %22 = load ptr, ptr %4, align 8, !tbaa !15
  %magicptr = ptrtoint ptr %22 to i64
  switch i64 %magicptr, label %23 [
    i64 -1, label %27
    i64 0, label %27
  ]

23:                                               ; preds = %21
  br i1 %.not, label %26, label %24

24:                                               ; preds = %23
  %25 = load i32, ptr %22, align 4, !tbaa !11
  store i32 %25, ptr %2, align 4, !tbaa !11
  br label %26

26:                                               ; preds = %24, %23
  call void @free(ptr noundef %22) #16
  br label %27

27:                                               ; preds = %21, %21, %26, %20
  %.0 = phi i32 [ -9999, %20 ], [ 0, %26 ], [ 0, %21 ], [ 0, %21 ]
  %28 = getelementptr inbounds nuw i8, ptr %0, i64 24
  %29 = call i32 @pthread_mutex_destroy(ptr noundef nonnull %28) #16
  store i32 0, ptr @paUtilErr_, align 4, !tbaa !11
  %30 = getelementptr inbounds nuw i8, ptr %0, i64 64
  %31 = call i32 @pthread_cond_destroy(ptr noundef nonnull %30) #16
  store i32 %31, ptr @paUtilErr_, align 4, !tbaa !11
  call void @llvm.lifetime.end.p0(i64 8, ptr nonnull %4) #16
  ret i32 %.0
}